target datalayout = "e-m:e-p270:32:32-p271:32:32-p272:64:64-i64:64-i128:128-f80:128-n8:16:32:64-S128"
target triple = "x86_64-pc-linux-gnu"

%class.b3InternalTriangleIndexCallback = type { ptr }
%struct.NodeTriangleCallback = type { %class.b3InternalTriangleIndexCallback, ptr }
%class.b3Vector3 = type { %union.anon }
%union.anon = type { [4 x float] }
%struct.b3OptimizedBvhNode = type { %class.b3Vector3, %class.b3Vector3, i32, i32, i32, [20 x i8] }

; Function Attrs: inlinehint mustprogress nounwind uwtable
define linkonce_odr dso_local void @_Z8b3SetMaxIfEvRT_RKS0_(ptr noundef nonnull align 4 dereferenceable(4) %0, ptr noundef nonnull align 4 dereferenceable(4) %1) #4 comdat {
  %3 = alloca ptr, align 8
  %4 = alloca ptr, align 8
  store ptr %0, ptr %3, align 8, !tbaa !84
  store ptr %1, ptr %4, align 8, !tbaa !84
  %5 = load ptr, ptr %3, align 8, !tbaa !84
  %6 = load float, ptr %5, align 4, !tbaa !60
  %7 = load ptr, ptr %4, align 8, !tbaa !84
  %8 = load float, ptr %7, align 4, !tbaa !60
  %9 = fcmp olt float %6, %8
  br i1 %9, label %10, label %14

10:                                               ; preds = %2
  %11 = load ptr, ptr %4, align 8, !tbaa !84
  %12 = load float, ptr %11, align 4, !tbaa !60
  %13 = load ptr, ptr %3, align 8, !tbaa !84
  store float %12, ptr %13, align 4, !tbaa !60
  br label %14

14:                                               ; preds = %10, %2
  ret void
}

; Function Attrs: inlinehint mustprogress nounwind uwtable
define linkonce_odr dso_local void @_Z8b3SetMinIfEvRT_RKS0_(ptr noundef nonnull align 4 dereferenceable(4) %0, ptr noundef nonnull align 4 dereferenceable(4) %1) #4 comdat {
  %3 = alloca ptr, align 8
  %4 = alloca ptr, align 8
  store ptr %0, ptr %3, align 8, !tbaa !84
  store ptr %1, ptr %4, align 8, !tbaa !84
  %5 = load ptr, ptr %4, align 8, !tbaa !84
  %6 = load float, ptr %5, align 4, !tbaa !60
  %7 = load ptr, ptr %3, align 8, !tbaa !84
  %8 = load float, ptr %7, align 4, !tbaa !60
  %9 = fcmp olt float %6, %8
  br i1 %9, label %10, label %14

10:                                               ; preds = %2
  %11 = load ptr, ptr %4, align 8, !tbaa !84
  %12 = load float, ptr %11, align 4, !tbaa !60
  %13 = load ptr, ptr %3, align 8, !tbaa !84
  store float %12, ptr %13, align 4, !tbaa !60
  br label %14

14:                                               ; preds = %10, %2
  ret void
}

; Function Attrs: inlinehint mustprogress uwtable
define linkonce_odr dso_local void @_ZN9b3Vector36setMaxERKS_(ptr noundef nonnull align 16 dereferenceable(16) %0, ptr noundef nonnull align 16 dereferenceable(16) %1) #7 comdat align 2 {
  %3 = alloca ptr, align 8
  %4 = alloca ptr, align 8
  store ptr %0, ptr %3, align 8, !tbaa !16
  store ptr %1, ptr %4, align 8, !tbaa !16
  %5 = load ptr, ptr %3, align 8
  %6 = getelementptr inbounds nuw %class.b3Vector3, ptr %5, i32 0, i32 0
  %7 = getelementptr inbounds [4 x float], ptr %6, i64 0, i64 0
  %8 = load ptr, ptr %4, align 8, !tbaa !16
  %9 = getelementptr inbounds nuw %class.b3Vector3, ptr %8, i32 0, i32 0
  %10 = getelementptr inbounds [4 x float], ptr %9, i64 0, i64 0
  call void @_Z8b3SetMaxIfEvRT_RKS0_(ptr noundef nonnull align 4 dereferenceable(4) %7, ptr noundef nonnull align 4 dereferenceable(4) %10)
  %11 = getelementptr inbounds nuw %class.b3Vector3, ptr %5, i32 0, i32 0
  %12 = getelementptr inbounds [4 x float], ptr %11, i64 0, i64 1
  %13 = load ptr, ptr %4, align 8, !tbaa !16
  %14 = getelementptr inbounds nuw %class.b3Vector3, ptr %13, i32 0, i32 0
  %15 = getelementptr inbounds [4 x float], ptr %14, i64 0, i64 1
  call void @_Z8b3SetMaxIfEvRT_RKS0_(ptr noundef nonnull align 4 dereferenceable(4) %12, ptr noundef nonnull align 4 dereferenceable(4) %15)
  %16 = getelementptr inbounds nuw %class.b3Vector3, ptr %5, i32 0, i32 0
  %17 = getelementptr inbounds [4 x float], ptr %16, i64 0, i64 2
  %18 = load ptr, ptr %4, align 8, !tbaa !16
  %19 = getelementptr inbounds nuw %class.b3Vector3, ptr %18, i32 0, i32 0
  %20 = getelementptr inbounds [4 x float], ptr %19, i64 0, i64 2
  call void @_Z8b3SetMaxIfEvRT_RKS0_(ptr noundef nonnull align 4 dereferenceable(4) %17, ptr noundef nonnull align 4 dereferenceable(4) %20)
  %21 = getelementptr inbounds nuw %class.b3Vector3, ptr %5, i32 0, i32 0
  %22 = getelementptr inbounds [4 x float], ptr %21, i64 0, i64 3
  %23 = load ptr, ptr %4, align 8, !tbaa !16
  %24 = getelementptr inbounds nuw %class.b3Vector3, ptr %23, i32 0, i32 0
  %25 = getelementptr inbounds [4 x float], ptr %24, i64 0, i64 3
  call void @_Z8b3SetMaxIfEvRT_RKS0_(ptr noundef nonnull align 4 dereferenceable(4) %22, ptr noundef nonnull align 4 dereferenceable(4) %25)
  ret void
}

; Function Attrs: inlinehint mustprogress uwtable
define linkonce_odr dso_local void @_ZN9b3Vector36setMinERKS_(ptr noundef nonnull align 16 dereferenceable(16) %0, ptr noundef nonnull align 16 dereferenceable(16) %1) #7 comdat align 2 {
  %3 = alloca ptr, align 8
  %4 = alloca ptr, align 8
  store ptr %0, ptr %3, align 8, !tbaa !16
  store ptr %1, ptr %4, align 8, !tbaa !16
  %5 = load ptr, ptr %3, align 8
  %6 = getelementptr inbounds nuw %class.b3Vector3, ptr %5, i32 0, i32 0
  %7 = getelementptr inbounds [4 x float], ptr %6, i64 0, i64 0
  %8 = load ptr, ptr %4, align 8, !tbaa !16
  %9 = getelementptr inbounds nuw %class.b3Vector3, ptr %8, i32 0, i32 0
  %10 = getelementptr inbounds [4 x float], ptr %9, i64 0, i64 0
  call void @_Z8b3SetMinIfEvRT_RKS0_(ptr noundef nonnull align 4 dereferenceable(4) %7, ptr noundef nonnull align 4 dereferenceable(4) %10)
  %11 = getelementptr inbounds nuw %class.b3Vector3, ptr %5, i32 0, i32 0
  %12 = getelementptr inbounds [4 x float], ptr %11, i64 0, i64 1
  %13 = load ptr, ptr %4, align 8, !tbaa !16
  %14 = getelementptr inbounds nuw %class.b3Vector3, ptr %13, i32 0, i32 0
  %15 = getelementptr inbounds [4 x float], ptr %14, i64 0, i64 1
  call void @_Z8b3SetMinIfEvRT_RKS0_(ptr noundef nonnull align 4 dereferenceable(4) %12, ptr noundef nonnull align 4 dereferenceable(4) %15)
  %16 = getelementptr inbounds nuw %class.b3Vector3, ptr %5, i32 0, i32 0
  %17 = getelementptr inbounds [4 x float], ptr %16, i64 0, i64 2
  %18 = load ptr, ptr %4, align 8, !tbaa !16
  %19 = getelementptr inbounds nuw %class.b3Vector3, ptr %18, i32 0, i32 0
  %20 = getelementptr inbounds [4 x float], ptr %19, i64 0, i64 2
  call void @_Z8b3SetMinIfEvRT_RKS0_(ptr noundef nonnull align 4 dereferenceable(4) %17, ptr noundef nonnull align 4 dereferenceable(4) %20)
  %21 = getelementptr inbounds nuw %class.b3Vector3, ptr %5, i32 0, i32 0
  %22 = getelementptr inbounds [4 x float], ptr %21, i64 0, i64 3
  %23 = load ptr, ptr %4, align 8, !tbaa !16
  %24 = getelementptr inbounds nuw %class.b3Vector3, ptr %23, i32 0, i32 0
  %25 = getelementptr inbounds [4 x float], ptr %24, i64 0, i64 3
  call void @_Z8b3SetMinIfEvRT_RKS0_(ptr noundef nonnull align 4 dereferenceable(4) %22, ptr noundef nonnull align 4 dereferenceable(4) %25)
  ret void
}

; Function Attrs: inlinehint mustprogress nounwind uwtable
define linkonce_odr dso_local void @_ZN9b3Vector38setValueERKfS1_S1_(ptr noundef nonnull align 16 dereferenceable(16) %0, ptr noundef nonnull align 4 dereferenceable(4) %1, ptr noundef nonnull align 4 dereferenceable(4) %2, ptr noundef nonnull align 4 dereferenceable(4) %3) #4 comdat align 2 {
  %5 = alloca ptr, align 8
  %6 = alloca ptr, align 8
  %7 = alloca ptr, align 8
  %8 = alloca ptr, align 8
  store ptr %0, ptr %5, align 8, !tbaa !16
  store ptr %1, ptr %6, align 8, !tbaa !84
  store ptr %2, ptr %7, align 8, !tbaa !84
  store ptr %3, ptr %8, align 8, !tbaa !84
  %9 = load ptr, ptr %5, align 8
  %10 = load ptr, ptr %6, align 8, !tbaa !84
  %11 = load float, ptr %10, align 4, !tbaa !60
  %12 = getelementptr inbounds nuw %class.b3Vector3, ptr %9, i32 0, i32 0
  %13 = getelementptr inbounds [4 x float], ptr %12, i64 0, i64 0
  store float %11, ptr %13, align 16, !tbaa !67
  %14 = load ptr, ptr %7, align 8, !tbaa !84
  %15 = load float, ptr %14, align 4, !tbaa !60
  %16 = getelementptr inbounds nuw %class.b3Vector3, ptr %9, i32 0, i32 0
  %17 = getelementptr inbounds [4 x float], ptr %16, i64 0, i64 1
  store float %15, ptr %17, align 4, !tbaa !67
  %18 = load ptr, ptr %8, align 8, !tbaa !84
  %19 = load float, ptr %18, align 4, !tbaa !60
  %20 = getelementptr inbounds nuw %class.b3Vector3, ptr %9, i32 0, i32 0
  %21 = getelementptr inbounds [4 x float], ptr %20, i64 0, i64 2
  store float %19, ptr %21, align 8, !tbaa !67
  %22 = getelementptr inbounds nuw %class.b3Vector3, ptr %9, i32 0, i32 0
  %23 = getelementptr inbounds [4 x float], ptr %22, i64 0, i64 3
  store float 0.000000e+00, ptr %23, align 4, !tbaa !67
  ret void
}

; Function Attrs: mustprogress uwtable
define internal void @_ZZN14b3OptimizedBvh5buildEP23b3StridingMeshInterfacebRK9b3Vector3S4_EN20NodeTriangleCallback28internalProcessTriangleIndexEPS2_ii(ptr noundef nonnull align 8 dereferenceable(16) %0, ptr noundef %1, i32 noundef %2, i32 noundef %3) unnamed_addr #0 align 2 {
  %5 = alloca ptr, align 8
  %6 = alloca ptr, align 8
  %7 = alloca i32, align 4
  %8 = alloca i32, align 4
  %9 = alloca %struct.b3OptimizedBvhNode, align 16
  %10 = alloca %class.b3Vector3, align 16
  %11 = alloca %class.b3Vector3, align 16
  %12 = alloca float, align 4
  %13 = alloca float, align 4
  %14 = alloca float, align 4
  %15 = alloca float, align 4
  %16 = alloca float, align 4
  %17 = alloca float, align 4
  store ptr %0, ptr %5, align 8, !tbaa !56
  store ptr %1, ptr %6, align 8, !tbaa !16
  store i32 %2, ptr %7, align 4, !tbaa !34
  store i32 %3, ptr %8, align 4, !tbaa !34
  %18 = load ptr, ptr %5, align 8
  call void @llvm.lifetime.start.p0(i64 64, ptr %9) #13
  call void @llvm.lifetime.start.p0(i64 16, ptr %10) #13
  call void @llvm.lifetime.start.p0(i64 16, ptr %11) #13
  call void @llvm.lifetime.start.p0(i64 4, ptr %12) #13
  store float 0x43ABC16D60000000, ptr %12, align 4, !tbaa !60
  call void @llvm.lifetime.start.p0(i64 4, ptr %13) #13
  store float 0x43ABC16D60000000, ptr %13, align 4, !tbaa !60
  call void @llvm.lifetime.start.p0(i64 4, ptr %14) #13
  store float 0x43ABC16D60000000, ptr %14, align 4, !tbaa !60
  call void @_ZN9b3Vector38setValueERKfS1_S1_(ptr noundef nonnull align 16 dereferenceable(16) %10, ptr noundef nonnull align 4 dereferenceable(4) %12, ptr noundef nonnull align 4 dereferenceable(4) %13, ptr noundef nonnull align 4 dereferenceable(4) %14)
  call void @llvm.lifetime.end.p0(i64 4, ptr %14) #13
  call void @llvm.lifetime.end.p0(i64 4, ptr %13) #13
  call void @llvm.lifetime.end.p0(i64 4, ptr %12) #13
  call void @llvm.lifetime.start.p0(i64 4, ptr %15) #13
  store float 0xC3ABC16D60000000, ptr %15, align 4, !tbaa !60
  call void @llvm.lifetime.start.p0(i64 4, ptr %16) #13
  store float 0xC3ABC16D60000000, ptr %16, align 4, !tbaa !60
  call void @llvm.lifetime.start.p0(i64 4, ptr %17) #13
  store float 0xC3ABC16D60000000, ptr %17, align 4, !tbaa !60
  call void @_ZN9b3Vector38setValueERKfS1_S1_(ptr noundef nonnull align 16 dereferenceable(16) %11, ptr noundef nonnull align 4 dereferenceable(4) %15, ptr noundef nonnull align 4 dereferenceable(4) %16, ptr noundef nonnull align 4 dereferenceable(4) %17)
  call void @llvm.lifetime.end.p0(i64 4, ptr %17) #13
  call void @llvm.lifetime.end.p0(i64 4, ptr %16) #13
  call void @llvm.lifetime.end.p0(i64 4, ptr %15) #13
  %19 = load ptr, ptr %6, align 8, !tbaa !16
  %20 = getelementptr inbounds %class.b3Vector3, ptr %19, i64 0
  call void @_ZN9b3Vector36setMinERKS_(ptr noundef nonnull align 16 dereferenceable(16) %10, ptr noundef nonnull align 16 dereferenceable(16) %20)
  %21 = load ptr, ptr %6, align 8, !tbaa !16
  %22 = getelementptr inbounds %class.b3Vector3, ptr %21, i64 0
  call void @_ZN9b3Vector36setMaxERKS_(ptr noundef nonnull align 16 dereferenceable(16) %11, ptr noundef nonnull align 16 dereferenceable(16) %22)
  %23 = load ptr, ptr %6, align 8, !tbaa !16
  %24 = getelementptr inbounds %class.b3Vector3, ptr %23, i64 1
  call void @_ZN9b3Vector36setMinERKS_(ptr noundef nonnull align 16 dereferenceable(16) %10, ptr noundef nonnull align 16 dereferenceable(16) %24)
  %25 = load ptr, ptr %6, align 8, !tbaa !16
  %26 = getelementptr inbounds %class.b3Vector3, ptr %25, i64 1
  call void @_ZN9b3Vector36setMaxERKS_(ptr noundef nonnull align 16 dereferenceable(16) %11, ptr noundef nonnull align 16 dereferenceable(16) %26)
  %27 = load ptr, ptr %6, align 8, !tbaa !16
  %28 = getelementptr inbounds %class.b3Vector3, ptr %27, i64 2
  call void @_ZN9b3Vector36setMinERKS_(ptr noundef nonnull align 16 dereferenceable(16) %10, ptr noundef nonnull align 16 dereferenceable(16) %28)
  %29 = load ptr, ptr %6, align 8, !tbaa !16
  %30 = getelementptr inbounds %class.b3Vector3, ptr %29, i64 2
  call void @_ZN9b3Vector36setMaxERKS_(ptr noundef nonnull align 16 dereferenceable(16) %11, ptr noundef nonnull align 16 dereferenceable(16) %30)
  %31 = getelementptr inbounds nuw %struct.b3OptimizedBvhNode, ptr %9, i32 0, i32 0
  call void @llvm.memcpy.p0.p0.i64(ptr align 16 %31, ptr align 16 %10, i64 16, i1 false), !tbaa.struct !86
  %32 = getelementptr inbounds nuw %struct.b3OptimizedBvhNode, ptr %9, i32 0, i32 1
  call void @llvm.memcpy.p0.p0.i64(ptr align 16 %32, ptr align 16 %11, i64 16, i1 false), !tbaa.struct !86
  %33 = getelementptr inbounds nuw %struct.b3OptimizedBvhNode, ptr %9, i32 0, i32 2
  store i32 -1, ptr %33, align 16, !tbaa !110
  %34 = load i32, ptr %7, align 4, !tbaa !34
  %35 = getelementptr inbounds nuw %struct.b3OptimizedBvhNode, ptr %9, i32 0, i32 3
  store i32 %34, ptr %35, align 4, !tbaa !112
  %36 = load i32, ptr %8, align 4, !tbaa !34
  %37 = getelementptr inbounds nuw %struct.b3OptimizedBvhNode, ptr %9, i32 0, i32 4
  store i32 %36, ptr %37, align 8, !tbaa !113
  %38 = getelementptr inbounds nuw %struct.NodeTriangleCallback, ptr %18, i32 0, i32 1
  %39 = load ptr, ptr %38, align 8, !tbaa !114
  call void @_ZN20b3AlignedObjectArrayI18b3OptimizedBvhNodeE9push_backERKS0_(ptr noundef nonnull align 8 dereferenceable(25) %39, ptr noundef nonnull align 16 dereferenceable(64) %9)
  call void @llvm.lifetime.end.p0(i64 16, ptr %11) #13
  call void @llvm.lifetime.end.p0(i64 16, ptr %10) #13
  call void @llvm.lifetime.end.p0(i64 64, ptr %9) #13
  ret void
}