; Function Attrs: mustprogress uwtable
define internal void @_ZZN14b3OptimizedBvh5buildEP23b3StridingMeshInterfacebRK9b3Vector3S4_EN20NodeTriangleCallback28internalProcessTriangleIndexEPS2_ii(ptr noundef nonnull readonly align 8 captures(none) dereferenceable(16) %0, ptr noundef readonly captures(none) %1, i32 noundef %2, i32 noundef %3) unnamed_addr #0 align 2 {
_Z8b3SetMinIfEvRT_RKS0_.exit.i:
  %4 = alloca %struct.b3OptimizedBvhNode, align 16
  call void @llvm.lifetime.start.p0(i64 64, ptr nonnull %4) #14
  %5 = load float, ptr %1, align 4, !tbaa !69
  %6 = fcmp olt float %5, 0x43ABC16D60000000
  %.sroa.037.0 = select i1 %6, float %5, float 0x43ABC16D60000000
  %7 = getelementptr inbounds nuw i8, ptr %1, i64 4
  %8 = load float, ptr %7, align 4, !tbaa !69
  %9 = fcmp olt float %8, 0x43ABC16D60000000
  %.sroa.1040.0 = select i1 %9, float %8, float 0x43ABC16D60000000
  %10 = getelementptr inbounds nuw i8, ptr %1, i64 8
  %11 = load float, ptr %10, align 4, !tbaa !69
  %12 = fcmp olt float %11, 0x43ABC16D60000000
  %.sroa.1743.0 = select i1 %12, float %11, float 0x43ABC16D60000000
  %13 = getelementptr inbounds nuw i8, ptr %1, i64 12
  %14 = load float, ptr %13, align 4, !tbaa !69
  %15 = fcmp olt float %14, 0.000000e+00
  %.sroa.2446.0 = select i1 %15, float %14, float 0.000000e+00
  %16 = fcmp ogt float %5, 0xC3ABC16D60000000
  %.sroa.0.0 = select i1 %16, float %5, float 0xC3ABC16D60000000
  %17 = fcmp ogt float %8, 0xC3ABC16D60000000
  %.sroa.10.0 = select i1 %17, float %8, float 0xC3ABC16D60000000
  %18 = fcmp ogt float %11, 0xC3ABC16D60000000
  %.sroa.17.0 = select i1 %18, float %11, float 0xC3ABC16D60000000
  %19 = fcmp ogt float %14, 0.000000e+00
  %.sroa.24.0 = select i1 %19, float %14, float 0.000000e+00
  %20 = getelementptr inbounds nuw i8, ptr %1, i64 16
  %21 = load float, ptr %20, align 4, !tbaa !69
  %22 = fcmp olt float %21, %.sroa.037.0
  %.sroa.037.1 = select i1 %22, float %21, float %.sroa.037.0
  %23 = getelementptr inbounds nuw i8, ptr %1, i64 20
  %24 = load float, ptr %23, align 4, !tbaa !69
  %25 = fcmp olt float %24, %.sroa.1040.0
  %.sroa.1040.1 = select i1 %25, float %24, float %.sroa.1040.0
  %26 = getelementptr inbounds nuw i8, ptr %1, i64 24
  %27 = load float, ptr %26, align 4, !tbaa !69
  %28 = fcmp olt float %27, %.sroa.1743.0
  %.sroa.1743.1 = select i1 %28, float %27, float %.sroa.1743.0
  %29 = getelementptr inbounds nuw i8, ptr %1, i64 28
  %30 = load float, ptr %29, align 4, !tbaa !69
  %31 = fcmp olt float %30, %.sroa.2446.0
  %.sroa.2446.1 = select i1 %31, float %30, float %.sroa.2446.0
  %32 = fcmp olt float %.sroa.0.0, %21
  %.sroa.0.1 = select i1 %32, float %21, float %.sroa.0.0
  %33 = fcmp olt float %.sroa.10.0, %24
  %.sroa.10.1 = select i1 %33, float %24, float %.sroa.10.0
  %34 = fcmp olt float %.sroa.17.0, %27
  %.sroa.17.1 = select i1 %34, float %27, float %.sroa.17.0
  %35 = fcmp olt float %.sroa.24.0, %30
  %.sroa.24.1 = select i1 %35, float %30, float %.sroa.24.0
  %36 = getelementptr inbounds nuw i8, ptr %1, i64 32
  %37 = load float, ptr %36, align 4, !tbaa !69
  %38 = fcmp olt float %37, %.sroa.037.1
  %.sroa.037.2 = select i1 %38, float %37, float %.sroa.037.1
  %39 = getelementptr inbounds nuw i8, ptr %1, i64 36
  %40 = load float, ptr %39, align 4, !tbaa !69
  %41 = fcmp olt float %40, %.sroa.1040.1
  %.sroa.1040.2 = select i1 %41, float %40, float %.sroa.1040.1
  %42 = getelementptr inbounds nuw i8, ptr %1, i64 40
  %43 = load float, ptr %42, align 4, !tbaa !69
  %44 = fcmp olt float %43, %.sroa.1743.1
  %.sroa.1743.2 = select i1 %44, float %43, float %.sroa.1743.1
  %45 = getelementptr inbounds nuw i8, ptr %1, i64 44
  %46 = load float, ptr %45, align 4, !tbaa !69
  %47 = fcmp olt float %46, %.sroa.2446.1
  %.sroa.2446.2 = select i1 %47, float %46, float %.sroa.2446.1
  %48 = fcmp olt float %.sroa.0.1, %37
  %.sroa.0.2 = select i1 %48, float %37, float %.sroa.0.1
  %49 = fcmp olt float %.sroa.10.1, %40
  %.sroa.10.2 = select i1 %49, float %40, float %.sroa.10.1
  %50 = fcmp olt float %.sroa.17.1, %43
  %.sroa.17.2 = select i1 %50, float %43, float %.sroa.17.1
  %51 = fcmp olt float %.sroa.24.1, %46
  %.sroa.24.2 = select i1 %51, float %46, float %.sroa.24.1
  store float %.sroa.037.2, ptr %4, align 16
  %.sroa.1040.0..sroa_idx = getelementptr inbounds nuw i8, ptr %4, i64 4
  store float %.sroa.1040.2, ptr %.sroa.1040.0..sroa_idx, align 4
  %.sroa.1743.0..sroa_idx = getelementptr inbounds nuw i8, ptr %4, i64 8
  store float %.sroa.1743.2, ptr %.sroa.1743.0..sroa_idx, align 8
  %.sroa.2446.0..sroa_idx = getelementptr inbounds nuw i8, ptr %4, i64 12
  store float %.sroa.2446.2, ptr %.sroa.2446.0..sroa_idx, align 4, !tbaa !45
  %52 = getelementptr inbounds nuw i8, ptr %4, i64 16
  store float %.sroa.0.2, ptr %52, align 16
  %.sroa.10.0..sroa_idx = getelementptr inbounds nuw i8, ptr %4, i64 20
  store float %.sroa.10.2, ptr %.sroa.10.0..sroa_idx, align 4
  %.sroa.17.0..sroa_idx = getelementptr inbounds nuw i8, ptr %4, i64 24
  store float %.sroa.17.2, ptr %.sroa.17.0..sroa_idx, align 8
  %.sroa.24.0..sroa_idx = getelementptr inbounds nuw i8, ptr %4, i64 28
  store float %.sroa.24.2, ptr %.sroa.24.0..sroa_idx, align 4, !tbaa !45
  %53 = getelementptr inbounds nuw i8, ptr %4, i64 32
  store i32 -1, ptr %53, align 16, !tbaa !78
  %54 = getelementptr inbounds nuw i8, ptr %4, i64 36
  store i32 %2, ptr %54, align 4, !tbaa !80
  %55 = getelementptr inbounds nuw i8, ptr %4, i64 40
  store i32 %3, ptr %55, align 8, !tbaa !81
  %56 = getelementptr inbounds nuw i8, ptr %0, i64 8
  %57 = load ptr, ptr %56, align 8, !tbaa !82
  call void @_ZN20b3AlignedObjectArrayI18b3OptimizedBvhNodeE9push_backERKS0_(ptr noundef nonnull align 8 dereferenceable(25) %57, ptr noundef nonnull align 16 dereferenceable(64) %4)
  call void @llvm.lifetime.end.p0(i64 64, ptr nonnull %4) #14
  ret void
}